
pipedream.elf:     formato del fichero elf32-bigmips


Desensamblado de la secci贸n .text:

00400000 <start>:
  400000:	3c1d7fff 	lui	sp,0x7fff
  400004:	37bdfffc 	ori	sp,sp,0xfffc
  400008:	0c1000b4 	jal	4002d0 <main>
  40000c:	08100003 	j	40000c <start+0xc>

00400010 <dibujo>:
  400010:	27bdffc0 	addiu	sp,sp,-64
  400014:	3c020203 	lui	v0,0x203
  400018:	3c041001 	lui	a0,0x1001
  40001c:	afa2001c 	sw	v0,28(sp)
  400020:	3c020101 	lui	v0,0x101
  400024:	afb30038 	sw	s3,56(sp)
  400028:	afb20034 	sw	s2,52(sp)
  40002c:	afb10030 	sw	s1,48(sp)
  400030:	afb0002c 	sw	s0,44(sp)
  400034:	afbf003c 	sw	ra,60(sp)
  400038:	afa00020 	sw	zero,32(sp)
  40003c:	a7a00024 	sh	zero,36(sp)
  400040:	afa20010 	sw	v0,16(sp)
  400044:	afa00014 	sw	zero,20(sp)
  400048:	a7a00018 	sh	zero,24(sp)
  40004c:	24110009 	li	s1,9
  400050:	24930000 	addiu	s3,a0,0
  400054:	24120046 	li	s2,70
  400058:	00808025 	move	s0,a0
  40005c:	322500ff 	andi	a1,s1,0xff
  400060:	24040005 	li	a0,5
  400064:	0c1001eb 	jal	4007ac <set_cursor>
  400068:	00002825 	move	a1,zero
  40006c:	24040004 	li	a0,4
  400070:	0c1001dd 	jal	400774 <set_color>
  400074:	26310001 	addiu	s1,s1,1
  400078:	02602025 	move	a0,s3
  40007c:	0c100215 	jal	400854 <puts>
  400080:	1632fff6 	bne	s1,s2,40005c <dibujo+0x4c>
  400084:	24110009 	li	s1,9
  400088:	26100000 	addiu	s0,s0,0
  40008c:	24120046 	li	s2,70
  400090:	322500ff 	andi	a1,s1,0xff
  400094:	24040019 	li	a0,25
  400098:	0c1001eb 	jal	4007ac <set_cursor>
  40009c:	00002825 	move	a1,zero
  4000a0:	24040004 	li	a0,4
  4000a4:	0c1001dd 	jal	400774 <set_color>
  4000a8:	26310001 	addiu	s1,s1,1
  4000ac:	02002025 	move	a0,s0
  4000b0:	0c100215 	jal	400854 <puts>
  4000b4:	1632fff6 	bne	s1,s2,400090 <dibujo+0x80>
  4000b8:	3c041001 	lui	a0,0x1001
  4000bc:	24110005 	li	s1,5
  4000c0:	24930004 	addiu	s3,a0,4
  4000c4:	24120019 	li	s2,25
  4000c8:	00808025 	move	s0,a0
  4000cc:	322400ff 	andi	a0,s1,0xff
  4000d0:	24050008 	li	a1,8
  4000d4:	0c1001eb 	jal	4007ac <set_cursor>
  4000d8:	00002825 	move	a1,zero
  4000dc:	24040004 	li	a0,4
  4000e0:	0c1001dd 	jal	400774 <set_color>
  4000e4:	26310001 	addiu	s1,s1,1
  4000e8:	02602025 	move	a0,s3
  4000ec:	0c100215 	jal	400854 <puts>
  4000f0:	1632fff6 	bne	s1,s2,4000cc <dibujo+0xbc>
  4000f4:	24110005 	li	s1,5
  4000f8:	26100004 	addiu	s0,s0,4
  4000fc:	24120019 	li	s2,25
  400100:	322400ff 	andi	a0,s1,0xff
  400104:	24050045 	li	a1,69
  400108:	0c1001eb 	jal	4007ac <set_cursor>
  40010c:	00002825 	move	a1,zero
  400110:	24040004 	li	a0,4
  400114:	0c1001dd 	jal	400774 <set_color>
  400118:	26310001 	addiu	s1,s1,1
  40011c:	02002025 	move	a0,s0
  400120:	0c100215 	jal	400854 <puts>
  400124:	1632fff6 	bne	s1,s2,400100 <dibujo+0xf0>
  400128:	24050023 	li	a1,35
  40012c:	24040003 	li	a0,3
  400130:	0c1001eb 	jal	4007ac <set_cursor>
  400134:	00002825 	move	a1,zero
  400138:	24040007 	li	a0,7
  40013c:	0c1001dd 	jal	400774 <set_color>
  400140:	3c041001 	lui	a0,0x1001
  400144:	24840008 	addiu	a0,a0,8
  400148:	0c100215 	jal	400854 <puts>
  40014c:	24050014 	li	a1,20
  400150:	2404001a 	li	a0,26
  400154:	0c1001eb 	jal	4007ac <set_cursor>
  400158:	00002825 	move	a1,zero
  40015c:	24040007 	li	a0,7
  400160:	0c1001dd 	jal	400774 <set_color>
  400164:	3c041001 	lui	a0,0x1001
  400168:	24840014 	addiu	a0,a0,20
  40016c:	0c100215 	jal	400854 <puts>
  400170:	2405001e 	li	a1,30
  400174:	2404001a 	li	a0,26
  400178:	0c1001eb 	jal	4007ac <set_cursor>
  40017c:	00002825 	move	a1,zero
  400180:	24040007 	li	a0,7
  400184:	0c1001dd 	jal	400774 <set_color>
  400188:	3c041001 	lui	a0,0x1001
  40018c:	2484001c 	addiu	a0,a0,28
  400190:	0c100215 	jal	400854 <puts>
  400194:	24050028 	li	a1,40
  400198:	2404001a 	li	a0,26
  40019c:	0c1001eb 	jal	4007ac <set_cursor>
  4001a0:	00002825 	move	a1,zero
  4001a4:	24040007 	li	a0,7
  4001a8:	0c1001dd 	jal	400774 <set_color>
  4001ac:	3c041001 	lui	a0,0x1001
  4001b0:	24840024 	addiu	a0,a0,36
  4001b4:	0c100215 	jal	400854 <puts>
  4001b8:	2405000a 	li	a1,10
  4001bc:	24040009 	li	a0,9
  4001c0:	0c1001eb 	jal	4007ac <set_cursor>
  4001c4:	00002825 	move	a1,zero
  4001c8:	24040002 	li	a0,2
  4001cc:	0c1001dd 	jal	400774 <set_color>
  4001d0:	27a40010 	addiu	a0,sp,16
  4001d4:	0c100215 	jal	400854 <puts>
  4001d8:	24050009 	li	a1,9
  4001dc:	24040009 	li	a0,9
  4001e0:	0c1001eb 	jal	4007ac <set_cursor>
  4001e4:	00002825 	move	a1,zero
  4001e8:	24040002 	li	a0,2
  4001ec:	0c1001dd 	jal	400774 <set_color>
  4001f0:	3c041001 	lui	a0,0x1001
  4001f4:	2484002c 	addiu	a0,a0,44
  4001f8:	0c100215 	jal	400854 <puts>
  4001fc:	2405003c 	li	a1,60
  400200:	24040017 	li	a0,23
  400204:	0c1001eb 	jal	4007ac <set_cursor>
  400208:	00002825 	move	a1,zero
  40020c:	24040002 	li	a0,2
  400210:	0c1001dd 	jal	400774 <set_color>
  400214:	27a4001c 	addiu	a0,sp,28
  400218:	0c100215 	jal	400854 <puts>
  40021c:	2405003d 	li	a1,61
  400220:	24040018 	li	a0,24
  400224:	0c1001eb 	jal	4007ac <set_cursor>
  400228:	00002825 	move	a1,zero
  40022c:	24040002 	li	a0,2
  400230:	0c1001dd 	jal	400774 <set_color>
  400234:	3c041001 	lui	a0,0x1001
  400238:	24840030 	addiu	a0,a0,48
  40023c:	0c100215 	jal	400854 <puts>
  400240:	8fbf003c 	lw	ra,60(sp)
  400244:	8fb30038 	lw	s3,56(sp)
  400248:	8fb20034 	lw	s2,52(sp)
  40024c:	8fb10030 	lw	s1,48(sp)
  400250:	8fb0002c 	lw	s0,44(sp)
  400254:	27bd0040 	addiu	sp,sp,64
  400258:	03e00008 	jr	ra

0040025c <ganar>:
  40025c:	27bdffe8 	addiu	sp,sp,-24
  400260:	afbf0014 	sw	ra,20(sp)
  400264:	1080000c 	beqz	a0,400298 <ganar+0x3c>
  400268:	0c100223 	jal	40088c <clear_screen>
  40026c:	00002825 	move	a1,zero
  400270:	24040007 	li	a0,7
  400274:	0c1001dd 	jal	400774 <set_color>
  400278:	2404000f 	li	a0,15
  40027c:	24050023 	li	a1,35
  400280:	0c1001eb 	jal	4007ac <set_cursor>
  400284:	3c041001 	lui	a0,0x1001
  400288:	24840034 	addiu	a0,a0,52
  40028c:	8fbf0014 	lw	ra,20(sp)
  400290:	27bd0018 	addiu	sp,sp,24
  400294:	08100215 	j	400854 <puts>
  400298:	0c100223 	jal	40088c <clear_screen>
  40029c:	00002825 	move	a1,zero
  4002a0:	24040007 	li	a0,7
  4002a4:	0c1001dd 	jal	400774 <set_color>
  4002a8:	2404000f 	li	a0,15
  4002ac:	24050023 	li	a1,35
  4002b0:	0c1001eb 	jal	4007ac <set_cursor>
  4002b4:	3c041001 	lui	a0,0x1001
  4002b8:	24840044 	addiu	a0,a0,68
  4002bc:	1000fff3 	b	40028c <ganar+0x30>

004002c0 <scoreF>:
  4002c0:	24820030 	addiu	v0,a0,48
  4002c4:	00021600 	sll	v0,v0,0x18
  4002c8:	00021603 	sra	v0,v0,0x18
  4002cc:	03e00008 	jr	ra

004002d0 <main>:
  4002d0:	27bdff80 	addiu	sp,sp,-128
  4002d4:	3c020203 	lui	v0,0x203
  4002d8:	afa2004c 	sw	v0,76(sp)
  4002dc:	3c020101 	lui	v0,0x101
  4002e0:	afa20040 	sw	v0,64(sp)
  4002e4:	3c020405 	lui	v0,0x405
  4002e8:	afa20034 	sw	v0,52(sp)
  4002ec:	3c020607 	lui	v0,0x607
  4002f0:	afa20028 	sw	v0,40(sp)
  4002f4:	3c020809 	lui	v0,0x809
  4002f8:	afa2001c 	sw	v0,28(sp)
  4002fc:	3c021110 	lui	v0,0x1110
  400300:	afbf007c 	sw	ra,124(sp)
  400304:	afa20010 	sw	v0,16(sp)
  400308:	afb70074 	sw	s7,116(sp)
  40030c:	afb5006c 	sw	s5,108(sp)
  400310:	afb30064 	sw	s3,100(sp)
  400314:	afb20060 	sw	s2,96(sp)
  400318:	afb1005c 	sw	s1,92(sp)
  40031c:	afb00058 	sw	s0,88(sp)
  400320:	afbe0078 	sw	s8,120(sp)
  400324:	afb60070 	sw	s6,112(sp)
  400328:	afb40068 	sw	s4,104(sp)
  40032c:	afa00050 	sw	zero,80(sp)
  400330:	a7a00054 	sh	zero,84(sp)
  400334:	afa00044 	sw	zero,68(sp)
  400338:	a7a00048 	sh	zero,72(sp)
  40033c:	afa00038 	sw	zero,56(sp)
  400340:	a7a0003c 	sh	zero,60(sp)
  400344:	afa0002c 	sw	zero,44(sp)
  400348:	a7a00030 	sh	zero,48(sp)
  40034c:	afa00020 	sw	zero,32(sp)
  400350:	a7a00024 	sh	zero,36(sp)
  400354:	afa00014 	sw	zero,20(sp)
  400358:	a7a00018 	sh	zero,24(sp)
  40035c:	0c100223 	jal	40088c <clear_screen>
  400360:	00002825 	move	a1,zero
  400364:	24040007 	li	a0,7
  400368:	0c1001dd 	jal	400774 <set_color>
  40036c:	2405000f 	li	a1,15
  400370:	2404001d 	li	a0,29
  400374:	0c1001eb 	jal	4007ac <set_cursor>
  400378:	27a50056 	addiu	a1,sp,86
  40037c:	27a40057 	addiu	a0,sp,87
  400380:	0c1001e3 	jal	40078c <get_color>
  400384:	2417000c 	li	s7,12
  400388:	0c100004 	jal	400010 <dibujo>
  40038c:	24150009 	li	s5,9
  400390:	0c1001ae 	jal	4006b8 <keypad_init>
  400394:	00009025 	move	s2,zero
  400398:	00009825 	move	s3,zero
  40039c:	00008025 	move	s0,zero
  4003a0:	00008825 	move	s1,zero
  4003a4:	26e2fff7 	addiu	v0,s7,-9
  4003a8:	2c42003c 	sltiu	v0,v0,60
  4003ac:	1040001d 	beqz	v0,400424 <main+0x154>
  4003b0:	1660001c 	bnez	s3,400424 <main+0x154>
  4003b4:	0c1001b2 	jal	4006c8 <keypad_getkey>
  4003b8:	0040f025 	move	s8,v0
  4003bc:	24020016 	li	v0,22
  4003c0:	16a20002 	bne	s5,v0,4003cc <main+0xfc>
  4003c4:	2402003c 	li	v0,60
  4003c8:	12e200ae 	beq	s7,v0,400684 <main+0x3b4>
  4003cc:	24020002 	li	v0,2
  4003d0:	17c20023 	bne	s8,v0,400460 <main+0x190>
  4003d4:	26310001 	addiu	s1,s1,1
  4003d8:	2a220007 	slti	v0,s1,7
  4003dc:	10400078 	beqz	v0,4005c0 <main+0x2f0>
  4003e0:	24140001 	li	s4,1
  4003e4:	16340025 	bne	s1,s4,40047c <main+0x1ac>
  4003e8:	32e500ff 	andi	a1,s7,0xff
  4003ec:	32a400ff 	andi	a0,s5,0xff
  4003f0:	0c1001eb 	jal	4007ac <set_cursor>
  4003f4:	00002825 	move	a1,zero
  4003f8:	24040002 	li	a0,2
  4003fc:	0c1001dd 	jal	400774 <set_color>
  400400:	27a40040 	addiu	a0,sp,64
  400404:	0c100215 	jal	400854 <puts>
  400408:	24020008 	li	v0,8
  40040c:	13c20087 	beq	s8,v0,40062c <main+0x35c>
  400410:	24040064 	li	a0,100
  400414:	0c1001a3 	jal	40068c <delay_ms>
  400418:	26a2fffa 	addiu	v0,s5,-6
  40041c:	2c420013 	sltiu	v0,v0,19
  400420:	1440ffe0 	bnez	v0,4003a4 <main+0xd4>
  400424:	02602025 	move	a0,s3
  400428:	0c100097 	jal	40025c <ganar>
  40042c:	8fbf007c 	lw	ra,124(sp)
  400430:	8fbe0078 	lw	s8,120(sp)
  400434:	8fb70074 	lw	s7,116(sp)
  400438:	8fb60070 	lw	s6,112(sp)
  40043c:	8fb5006c 	lw	s5,108(sp)
  400440:	8fb40068 	lw	s4,104(sp)
  400444:	8fb30064 	lw	s3,100(sp)
  400448:	8fb20060 	lw	s2,96(sp)
  40044c:	8fb1005c 	lw	s1,92(sp)
  400450:	8fb00058 	lw	s0,88(sp)
  400454:	00001025 	move	v0,zero
  400458:	27bd0080 	addiu	sp,sp,128
  40045c:	03e00008 	jr	ra
  400460:	24020001 	li	v0,1
  400464:	17c2ffde 	bne	s8,v0,4003e0 <main+0x110>
  400468:	2631ffff 	addiu	s1,s1,-1
  40046c:	2402ffff 	li	v0,-1
  400470:	1622ffdb 	bne	s1,v0,4003e0 <main+0x110>
  400474:	00008825 	move	s1,zero
  400478:	1000ffe5 	b	400410 <main+0x140>
  40047c:	24020002 	li	v0,2
  400480:	16220012 	bne	s1,v0,4004cc <main+0x1fc>
  400484:	32e500ff 	andi	a1,s7,0xff
  400488:	32a400ff 	andi	a0,s5,0xff
  40048c:	0c1001eb 	jal	4007ac <set_cursor>
  400490:	00002825 	move	a1,zero
  400494:	24040002 	li	a0,2
  400498:	0c1001dd 	jal	400774 <set_color>
  40049c:	27a4004c 	addiu	a0,sp,76
  4004a0:	0c100215 	jal	400854 <puts>
  4004a4:	24020008 	li	v0,8
  4004a8:	17c2ffd9 	bne	s8,v0,400410 <main+0x140>
  4004ac:	24020003 	li	v0,3
  4004b0:	12020064 	beq	s0,v0,400644 <main+0x374>
  4004b4:	2a100002 	slti	s0,s0,2
  4004b8:	1600ffda 	bnez	s0,400424 <main+0x154>
  4004bc:	16540061 	bne	s2,s4,400644 <main+0x374>
  4004c0:	26b5ffff 	addiu	s5,s5,-1
  4004c4:	24100002 	li	s0,2
  4004c8:	10000055 	b	400620 <main+0x350>
  4004cc:	24160003 	li	s6,3
  4004d0:	16360010 	bne	s1,s6,400514 <main+0x244>
  4004d4:	32e500ff 	andi	a1,s7,0xff
  4004d8:	32a400ff 	andi	a0,s5,0xff
  4004dc:	0c1001eb 	jal	4007ac <set_cursor>
  4004e0:	00002825 	move	a1,zero
  4004e4:	24040002 	li	a0,2
  4004e8:	0c1001dd 	jal	400774 <set_color>
  4004ec:	27a40034 	addiu	a0,sp,52
  4004f0:	0c100215 	jal	400854 <puts>
  4004f4:	24020008 	li	v0,8
  4004f8:	17c2ffc5 	bne	s8,v0,400410 <main+0x140>
  4004fc:	1211005f 	beq	s0,s1,40067c <main+0x3ac>
  400500:	24020006 	li	v0,6
  400504:	16020001 	bne	s0,v0,40050c <main+0x23c>
  400508:	00009025 	move	s2,zero
  40050c:	26f70002 	addiu	s7,s7,2
  400510:	1000004e 	b	40064c <main+0x37c>
  400514:	24030004 	li	v1,4
  400518:	16230013 	bne	s1,v1,400568 <main+0x298>
  40051c:	32e500ff 	andi	a1,s7,0xff
  400520:	32a400ff 	andi	a0,s5,0xff
  400524:	0c1001eb 	jal	4007ac <set_cursor>
  400528:	00002825 	move	a1,zero
  40052c:	24040002 	li	a0,2
  400530:	0c1001dd 	jal	400774 <set_color>
  400534:	27a40028 	addiu	a0,sp,40
  400538:	0c100215 	jal	400854 <puts>
  40053c:	24020008 	li	v0,8
  400540:	17c2ffb3 	bne	s8,v0,400410 <main+0x140>
  400544:	1211004d 	beq	s0,s1,40067c <main+0x3ac>
  400548:	12160042 	beq	s0,s6,400654 <main+0x384>
  40054c:	2610fffb 	addiu	s0,s0,-5
  400550:	2e100002 	sltiu	s0,s0,2
  400554:	12000040 	beqz	s0,400658 <main+0x388>
  400558:	1654003f 	bne	s2,s4,400658 <main+0x388>
  40055c:	26f7fffe 	addiu	s7,s7,-2
  400560:	24100004 	li	s0,4
  400564:	1000002e 	b	400620 <main+0x350>
  400568:	24020005 	li	v0,5
  40056c:	16220012 	bne	s1,v0,4005b8 <main+0x2e8>
  400570:	32e500ff 	andi	a1,s7,0xff
  400574:	32a400ff 	andi	a0,s5,0xff
  400578:	0c1001eb 	jal	4007ac <set_cursor>
  40057c:	00002825 	move	a1,zero
  400580:	24040002 	li	a0,2
  400584:	0c1001dd 	jal	400774 <set_color>
  400588:	27a4001c 	addiu	a0,sp,28
  40058c:	0c100215 	jal	400854 <puts>
  400590:	24020008 	li	v0,8
  400594:	24030004 	li	v1,4
  400598:	17c2ff9d 	bne	s8,v0,400410 <main+0x140>
  40059c:	12110037 	beq	s0,s1,40067c <main+0x3ac>
  4005a0:	12030001 	beq	s0,v1,4005a8 <main+0x2d8>
  4005a4:	1654002e 	bne	s2,s4,400660 <main+0x390>
  4005a8:	26b50001 	addiu	s5,s5,1
  4005ac:	02208025 	move	s0,s1
  4005b0:	24120001 	li	s2,1
  4005b4:	1000001a 	b	400620 <main+0x350>
  4005b8:	24020006 	li	v0,6
  4005bc:	16220016 	bne	s1,v0,400618 <main+0x348>
  4005c0:	32e500ff 	andi	a1,s7,0xff
  4005c4:	32a400ff 	andi	a0,s5,0xff
  4005c8:	0c1001eb 	jal	4007ac <set_cursor>
  4005cc:	00002825 	move	a1,zero
  4005d0:	24040002 	li	a0,2
  4005d4:	0c1001dd 	jal	400774 <set_color>
  4005d8:	27a40010 	addiu	a0,sp,16
  4005dc:	0c100215 	jal	400854 <puts>
  4005e0:	24020008 	li	v0,8
  4005e4:	24110006 	li	s1,6
  4005e8:	17c2ff89 	bne	s8,v0,400410 <main+0x140>
  4005ec:	24020006 	li	v0,6
  4005f0:	24110006 	li	s1,6
  4005f4:	1202000a 	beq	s0,v0,400620 <main+0x350>
  4005f8:	2a020002 	slti	v0,s0,2
  4005fc:	1440001b 	bnez	v0,40066c <main+0x39c>
  400600:	24020004 	li	v0,4
  400604:	1602001a 	bne	s0,v0,400670 <main+0x3a0>
  400608:	12400019 	beqz	s2,400670 <main+0x3a0>
  40060c:	26f7fffe 	addiu	s7,s7,-2
  400610:	24100006 	li	s0,6
  400614:	10000002 	b	400620 <main+0x350>
  400618:	24020008 	li	v0,8
  40061c:	17c2ff7c 	bne	s8,v0,400410 <main+0x140>
  400620:	24040064 	li	a0,100
  400624:	0c1001a3 	jal	40068c <delay_ms>
  400628:	1000ff79 	b	400410 <main+0x140>
  40062c:	16510003 	bne	s2,s1,40063c <main+0x36c>
  400630:	26f7fffe 	addiu	s7,s7,-2
  400634:	24100001 	li	s0,1
  400638:	1000fff9 	b	400620 <main+0x350>
  40063c:	26f70002 	addiu	s7,s7,2
  400640:	1000fffc 	b	400634 <main+0x364>
  400644:	26b50001 	addiu	s5,s5,1
  400648:	00009025 	move	s2,zero
  40064c:	02208025 	move	s0,s1
  400650:	1000fff3 	b	400620 <main+0x350>
  400654:	24120001 	li	s2,1
  400658:	26b5ffff 	addiu	s5,s5,-1
  40065c:	1000fffb 	b	40064c <main+0x37c>
  400660:	26f70002 	addiu	s7,s7,2
  400664:	24100005 	li	s0,5
  400668:	1000ffed 	b	400620 <main+0x350>
  40066c:	24120001 	li	s2,1
  400670:	26b50001 	addiu	s5,s5,1
  400674:	24110006 	li	s1,6
  400678:	1000ffe5 	b	400610 <main+0x340>
  40067c:	02008825 	move	s1,s0
  400680:	1000ffe7 	b	400620 <main+0x350>
  400684:	24130001 	li	s3,1
  400688:	1000ff46 	b	4003a4 <main+0xd4>

0040068c <delay_ms>:
  40068c:	3c08ffff 	lui	t0,0xffff
  400690:	8d090008 	lw	t1,8(t0)
  400694:	00000000 	nop
  400698:	01244820 	add	t1,t1,a0

0040069c <.dm_loop>:
  40069c:	8d0a0008 	lw	t2,8(t0)
  4006a0:	00000000 	nop
  4006a4:	0149582b 	sltu	t3,t2,t1
  4006a8:	1560fffc 	bnez	t3,40069c <.dm_loop>
  4006ac:	00000000 	nop
  4006b0:	03e00008 	jr	ra
  4006b4:	00000000 	nop

004006b8 <keypad_init>:
  4006b8:	3c081001 	lui	t0,0x1001
  4006bc:	ad000058 	sw	zero,88(t0)
  4006c0:	03e00008 	jr	ra
  4006c4:	00000000 	nop

004006c8 <keypad_getkey>:
  4006c8:	3c08ffff 	lui	t0,0xffff
  4006cc:	81080004 	lb	t0,4(t0)
  4006d0:	24090008 	li	t1,8
  4006d4:	240b0001 	li	t3,1
  4006d8:	00005025 	move	t2,zero

004006dc <.gk_loop>:
  4006dc:	11490018 	beq	t2,t1,400740 <.gk_end_loop>
  4006e0:	00000000 	nop
  4006e4:	010b6024 	and	t4,t0,t3
  4006e8:	000b5840 	sll	t3,t3,0x1
  4006ec:	11800011 	beqz	t4,400734 <.gk_inc_loop>
  4006f0:	00000000 	nop
  4006f4:	3c081001 	lui	t0,0x1001
  4006f8:	8d080058 	lw	t0,88(t0)
  4006fc:	3c09ffff 	lui	t1,0xffff
  400700:	8d290008 	lw	t1,8(t1)
  400704:	00000000 	nop
  400708:	0128582b 	sltu	t3,t1,t0
  40070c:	11600002 	beqz	t3,400718 <.set_key>
  400710:	00000000 	nop
  400714:	00001025 	move	v0,zero

00400718 <.set_key>:
  400718:	252900c8 	addiu	t1,t1,200
  40071c:	3c081001 	lui	t0,0x1001
  400720:	ad090058 	sw	t1,88(t0)
  400724:	01401025 	move	v0,t2
  400728:	24420001 	addiu	v0,v0,1
  40072c:	03e00008 	jr	ra
  400730:	00000000 	nop

00400734 <.gk_inc_loop>:
  400734:	254a0001 	addiu	t2,t2,1
  400738:	081001b7 	j	4006dc <.gk_loop>
  40073c:	00000000 	nop

00400740 <.gk_end_loop>:
  400740:	00001025 	move	v0,zero
  400744:	03e00008 	jr	ra
  400748:	00000000 	nop

0040074c <divide>:
  40074c:	acc00000 	sw	zero,0(a2)
  400750:	0085102b 	sltu	v0,a0,a1
  400754:	10400002 	beqz	v0,400760 <divide+0x14>
  400758:	ace40000 	sw	a0,0(a3)
  40075c:	03e00008 	jr	ra
  400760:	8cc20000 	lw	v0,0(a2)
  400764:	00852023 	subu	a0,a0,a1
  400768:	24420001 	addiu	v0,v0,1
  40076c:	acc20000 	sw	v0,0(a2)
  400770:	1000fff7 	b	400750 <divide+0x4>

00400774 <set_color>:
  400774:	00052900 	sll	a1,a1,0x4
  400778:	3084000f 	andi	a0,a0,0xf
  40077c:	00a42825 	or	a1,a1,a0
  400780:	3c021001 	lui	v0,0x1001
  400784:	a045005e 	sb	a1,94(v0)
  400788:	03e00008 	jr	ra

0040078c <get_color>:
  40078c:	3c031001 	lui	v1,0x1001
  400790:	9062005e 	lbu	v0,94(v1)
  400794:	3042000f 	andi	v0,v0,0xf
  400798:	a0820000 	sb	v0,0(a0)
  40079c:	9062005e 	lbu	v0,94(v1)
  4007a0:	00021102 	srl	v0,v0,0x4
  4007a4:	a0a20000 	sb	v0,0(a1)
  4007a8:	03e00008 	jr	ra

004007ac <set_cursor>:
  4007ac:	2c820028 	sltiu	v0,a0,40
  4007b0:	10400006 	beqz	v0,4007cc <set_cursor+0x20>
  4007b4:	2ca20050 	sltiu	v0,a1,80
  4007b8:	10400004 	beqz	v0,4007cc <set_cursor+0x20>
  4007bc:	3c021001 	lui	v0,0x1001
  4007c0:	a044005d 	sb	a0,93(v0)
  4007c4:	3c021001 	lui	v0,0x1001
  4007c8:	a045005c 	sb	a1,92(v0)
  4007cc:	03e00008 	jr	ra

004007d0 <put_char>:
  4007d0:	3c071001 	lui	a3,0x1001
  4007d4:	2403000a 	li	v1,10
  4007d8:	90e2005d 	lbu	v0,93(a3)
  4007dc:	3c061001 	lui	a2,0x1001
  4007e0:	14830006 	bne	a0,v1,4007fc <put_char+0x2c>
  4007e4:	2c430027 	sltiu	v1,v0,39
  4007e8:	10600002 	beqz	v1,4007f4 <put_char+0x24>
  4007ec:	24420001 	addiu	v0,v0,1
  4007f0:	a0e2005d 	sb	v0,93(a3)
  4007f4:	a0c0005c 	sb	zero,92(a2)
  4007f8:	03e00008 	jr	ra
  4007fc:	3c031001 	lui	v1,0x1001
  400800:	9063005e 	lbu	v1,94(v1)
  400804:	90c5005c 	lbu	a1,92(a2)
  400808:	00031a00 	sll	v1,v1,0x8
  40080c:	00642025 	or	a0,v1,a0
  400810:	00021880 	sll	v1,v0,0x2
  400814:	00621821 	addu	v1,v1,v0
  400818:	00031900 	sll	v1,v1,0x4
  40081c:	00651821 	addu	v1,v1,a1
  400820:	00031840 	sll	v1,v1,0x1
  400824:	3408b800 	li	t0,0xb800
  400828:	01031821 	addu	v1,t0,v1
  40082c:	a4640000 	sh	a0,0(v1)
  400830:	2ca3004f 	sltiu	v1,a1,79
  400834:	10600003 	beqz	v1,400844 <put_char+0x74>
  400838:	24a50001 	addiu	a1,a1,1
  40083c:	a0c5005c 	sb	a1,92(a2)
  400840:	03e00008 	jr	ra
  400844:	24420001 	addiu	v0,v0,1
  400848:	a0c0005c 	sb	zero,92(a2)
  40084c:	a0e2005d 	sb	v0,93(a3)
  400850:	03e00008 	jr	ra

00400854 <puts>:
  400854:	00804825 	move	t1,a0
  400858:	80840000 	lb	a0,0(a0)
  40085c:	14800001 	bnez	a0,400864 <puts+0x10>
  400860:	03e00008 	jr	ra
  400864:	27bdffe8 	addiu	sp,sp,-24
  400868:	afbf0014 	sw	ra,20(sp)
  40086c:	308400ff 	andi	a0,a0,0xff
  400870:	25290001 	addiu	t1,t1,1
  400874:	0c1001f4 	jal	4007d0 <put_char>
  400878:	81240000 	lb	a0,0(t1)
  40087c:	1480fffb 	bnez	a0,40086c <puts+0x18>
  400880:	8fbf0014 	lw	ra,20(sp)
  400884:	27bd0018 	addiu	sp,sp,24
  400888:	03e00008 	jr	ra

0040088c <clear_screen>:
  40088c:	3c021001 	lui	v0,0x1001
  400890:	9042005e 	lbu	v0,94(v0)
  400894:	3403b800 	li	v1,0xb800
  400898:	00021200 	sll	v0,v0,0x8
  40089c:	34420020 	ori	v0,v0,0x20
  4008a0:	3404cac0 	li	a0,0xcac0
  4008a4:	a4620000 	sh	v0,0(v1)
  4008a8:	24630002 	addiu	v1,v1,2
  4008ac:	1464fffd 	bne	v1,a0,4008a4 <clear_screen+0x18>
  4008b0:	3c021001 	lui	v0,0x1001
  4008b4:	a040005d 	sb	zero,93(v0)
  4008b8:	3c021001 	lui	v0,0x1001
  4008bc:	a040005c 	sb	zero,92(v0)
  4008c0:	03e00008 	jr	ra

Desensamblado de la secci贸n .data:

10010000 <next_key_time-0x58>:
10010000:	20000000 	addi	zero,zero,0
10010004:	19000000 	blez	t0,10010008 <clear_screen+0xfc0f77c>
10010008:	50495045 	0x50495045
1001000c:	44524541 	0x44524541
10010010:	4d000000 	bc3f	10010014 <clear_screen+0xfc0f788>
10010014:	52696768 	0x52696768
10010018:	74000000 	jalx	10000000 <clear_screen+0xfbff774>
1001001c:	4c656674 	0x4c656674
10010020:	00000000 	nop
10010024:	53706163 	0x53706163
10010028:	65000000 	0x65000000
1001002c:	42000000 	c0	0x0
10010030:	45000000 	bc1f	10010034 <clear_screen+0xfc0f7a8>
10010034:	48415a20 	0x48415a20
10010038:	47414e41 	c1	0x1414e41
1001003c:	444f2121 	0x444f2121
10010040:	00000000 	nop
10010044:	48415a20 	0x48415a20
10010048:	50455244 	0x50455244
1001004c:	49444f20 	0x49444f20
10010050:	3a282021 	xori	t0,s1,0x2021
10010054:	21000000 	addi	zero,t0,0

10010058 <next_key_time>:
10010058:	00000000 	nop

Desensamblado de la secci贸n .gnu.attributes:

00000000 <.gnu.attributes>:
   0:	41000000 	bc0f	4 <_gp+0x4>
   4:	0f676e75 	jal	d9db9d4 <clear_screen+0xd5db148>
   8:	00010000 	sll	zero,at,0x0
   c:	00070401 	0x70401

Desensamblado de la secci贸n .bss:

1001005c <cursor_col>:
	...

1001005d <cursor_row>:
	...

1001005e <chr_attr>:
	...
